; Function Attrs: mustprogress nofree norecurse nosync nounwind willreturn memory(read, inaccessiblemem: none) uwtable
define noundef zeroext i1 @_ZNK10open_spiel26bridge_uncontested_bidding23UncontestedBiddingState10IsTerminalEv(ptr noundef nonnull readonly align 8 captures(none) dereferenceable(5392) %0) unnamed_addr #7 align 2 {
  %2 = getelementptr inbounds nuw i8, ptr %0, i64 5356
  %3 = load i8, ptr %2, align 4
  %4 = trunc i8 %3 to i1
  br i1 %4, label %5, label %18

5:                                                ; preds = %1
  %6 = getelementptr inbounds nuw i8, ptr %0, i64 88
  %7 = getelementptr inbounds nuw i8, ptr %0, i64 96
  %8 = load ptr, ptr %7, align 8
  %9 = load ptr, ptr %6, align 8
  %10 = ptrtoint ptr %8 to i64
  %11 = ptrtoint ptr %9 to i64
  %12 = sub i64 %10, %11
  %13 = icmp ugt i64 %12, 8
  br i1 %13, label %14, label %18

14:                                               ; preds = %5
  %15 = getelementptr inbounds i8, ptr %8, i64 -8
  %16 = load i64, ptr %15, align 8
  %17 = icmp eq i64 %16, 0
  br label %18

18:                                               ; preds = %14, %5, %1
  %19 = phi i1 [ false, %5 ], [ false, %1 ], [ %17, %14 ]
  ret i1 %19
}